target datalayout = "e-m:e-p270:32:32-p271:32:32-p272:64:64-i64:64-i128:128-f80:128-n8:16:32:64-S128"
target triple = "x86_64-pc-linux-gnu"

%struct._timelib_tzdb = type { ptr, i32, ptr, ptr }
%struct._timelib_tzdb_index_entry = type { ptr, i32 }

; Function Attrs: nounwind uwtable
define internal i32 @seek_to_tz_position(ptr noundef %0, ptr noundef %1, ptr noundef %2) #0 {
  %4 = alloca i32, align 4
  %5 = alloca ptr, align 8
  %6 = alloca ptr, align 8
  %7 = alloca ptr, align 8
  %8 = alloca i32, align 4
  %9 = alloca i32, align 4
  %10 = alloca i32, align 4
  %11 = alloca i32, align 4
  %12 = alloca i32, align 4
  store ptr %0, ptr %5, align 8, !tbaa !84
  store ptr %1, ptr %6, align 8, !tbaa !31
  store ptr %2, ptr %7, align 8, !tbaa !76
  call void @llvm.lifetime.start.p0(i64 4, ptr %8) #11
  store i32 0, ptr %8, align 4, !tbaa !32
  call void @llvm.lifetime.start.p0(i64 4, ptr %9) #11
  %13 = load ptr, ptr %7, align 8, !tbaa !76
  %14 = getelementptr inbounds nuw %struct._timelib_tzdb, ptr %13, i32 0, i32 1
  %15 = load i32, ptr %14, align 8, !tbaa !80
  %16 = sub i32 %15, 1
  store i32 %16, ptr %9, align 4, !tbaa !32
  %17 = load ptr, ptr %7, align 8, !tbaa !76
  %18 = getelementptr inbounds nuw %struct._timelib_tzdb, ptr %17, i32 0, i32 1
  %19 = load i32, ptr %18, align 8, !tbaa !80
  %20 = icmp eq i32 %19, 0
  br i1 %20, label %21, label %22

21:                                               ; preds = %3
  store i32 0, ptr %4, align 4
  store i32 1, ptr %10, align 4
  br label %74

22:                                               ; preds = %3
  br label %23

23:                                               ; preds = %69, %22
  call void @llvm.lifetime.start.p0(i64 4, ptr %11) #11
  %24 = load i32, ptr %8, align 4, !tbaa !32
  %25 = load i32, ptr %9, align 4, !tbaa !32
  %26 = add i32 %24, %25
  %27 = lshr i32 %26, 1
  store i32 %27, ptr %11, align 4, !tbaa !32
  call void @llvm.lifetime.start.p0(i64 4, ptr %12) #11
  %28 = load ptr, ptr %6, align 8, !tbaa !31
  %29 = load ptr, ptr %7, align 8, !tbaa !76
  %30 = getelementptr inbounds nuw %struct._timelib_tzdb, ptr %29, i32 0, i32 2
  %31 = load ptr, ptr %30, align 8, !tbaa !83
  %32 = load i32, ptr %11, align 4, !tbaa !32
  %33 = sext i32 %32 to i64
  %34 = getelementptr inbounds %struct._timelib_tzdb_index_entry, ptr %31, i64 %33
  %35 = getelementptr inbounds nuw %struct._timelib_tzdb_index_entry, ptr %34, i32 0, i32 0
  %36 = load ptr, ptr %35, align 8, !tbaa !86
  %37 = call i32 @timelib_strcasecmp(ptr noundef %28, ptr noundef %36)
  store i32 %37, ptr %12, align 4, !tbaa !32
  %38 = load i32, ptr %12, align 4, !tbaa !32
  %39 = icmp slt i32 %38, 0
  br i1 %39, label %40, label %43

40:                                               ; preds = %23
  %41 = load i32, ptr %11, align 4, !tbaa !32
  %42 = sub i32 %41, 1
  store i32 %42, ptr %9, align 4, !tbaa !32
  br label %65

43:                                               ; preds = %23
  %44 = load i32, ptr %12, align 4, !tbaa !32
  %45 = icmp sgt i32 %44, 0
  br i1 %45, label %46, label %49

46:                                               ; preds = %43
  %47 = load i32, ptr %11, align 4, !tbaa !32
  %48 = add i32 %47, 1
  store i32 %48, ptr %8, align 4, !tbaa !32
  br label %64

49:                                               ; preds = %43
  %50 = load ptr, ptr %7, align 8, !tbaa !76
  %51 = getelementptr inbounds nuw %struct._timelib_tzdb, ptr %50, i32 0, i32 3
  %52 = load ptr, ptr %51, align 8, !tbaa !88
  %53 = load ptr, ptr %7, align 8, !tbaa !76
  %54 = getelementptr inbounds nuw %struct._timelib_tzdb, ptr %53, i32 0, i32 2
  %55 = load ptr, ptr %54, align 8, !tbaa !83
  %56 = load i32, ptr %11, align 4, !tbaa !32
  %57 = sext i32 %56 to i64
  %58 = getelementptr inbounds %struct._timelib_tzdb_index_entry, ptr %55, i64 %57
  %59 = getelementptr inbounds nuw %struct._timelib_tzdb_index_entry, ptr %58, i32 0, i32 1
  %60 = load i32, ptr %59, align 8, !tbaa !89
  %61 = zext i32 %60 to i64
  %62 = getelementptr inbounds nuw i8, ptr %52, i64 %61
  %63 = load ptr, ptr %5, align 8, !tbaa !84
  store ptr %62, ptr %63, align 8, !tbaa !31
  store i32 1, ptr %4, align 4
  store i32 1, ptr %10, align 4
  br label %66

64:                                               ; preds = %46
  br label %65

65:                                               ; preds = %64, %40
  store i32 0, ptr %10, align 4
  br label %66

66:                                               ; preds = %65, %49
  call void @llvm.lifetime.end.p0(i64 4, ptr %12) #11
  call void @llvm.lifetime.end.p0(i64 4, ptr %11) #11
  %67 = load i32, ptr %10, align 4
  switch i32 %67, label %74 [
    i32 0, label %68
  ]

68:                                               ; preds = %66
  br label %69

69:                                               ; preds = %68
  %70 = load i32, ptr %8, align 4, !tbaa !32
  %71 = load i32, ptr %9, align 4, !tbaa !32
  %72 = icmp sle i32 %70, %71
  br i1 %72, label %23, label %73

73:                                               ; preds = %69
  store i32 0, ptr %4, align 4
  store i32 1, ptr %10, align 4
  br label %74

74:                                               ; preds = %73, %66, %21
  call void @llvm.lifetime.end.p0(i64 4, ptr %9) #11
  call void @llvm.lifetime.end.p0(i64 4, ptr %8) #11
  %75 = load i32, ptr %4, align 4
  ret i32 %75
}

; Function Attrs: nounwind uwtable
define hidden i32 @timelib_timezone_id_is_valid(ptr noundef %0, ptr noundef %1) #0 {
  %3 = alloca ptr, align 8
  %4 = alloca ptr, align 8
  %5 = alloca ptr, align 8
  store ptr %0, ptr %3, align 8, !tbaa !31
  store ptr %1, ptr %4, align 8, !tbaa !76
  call void @llvm.lifetime.start.p0(i64 8, ptr %5) #11
  %6 = load ptr, ptr %3, align 8, !tbaa !31
  %7 = load ptr, ptr %4, align 8, !tbaa !76
  %8 = call i32 @seek_to_tz_position(ptr noundef %5, ptr noundef %6, ptr noundef %7)
  call void @llvm.lifetime.end.p0(i64 8, ptr %5) #11
  ret i32 %8
}