; Function Attrs: nounwind uwtable
define hidden range(i32 0, 2) i32 @timelib_timezone_id_is_valid(ptr noundef %0, ptr noundef readonly captures(none) %1) local_unnamed_addr #0 {
  %3 = getelementptr inbounds nuw i8, ptr %1, i64 8
  %4 = load i32, ptr %3, align 8, !tbaa !70
  %5 = icmp eq i32 %4, 0
  br i1 %5, label %seek_to_tz_position.exit, label %.preheader.i

.preheader.i:                                     ; preds = %2
  %6 = add i32 %4, -1
  %7 = getelementptr inbounds nuw i8, ptr %1, i64 16
  br label %8

8:                                                ; preds = %22, %.preheader.i
  %.022.i = phi i32 [ %.224.ph.i, %22 ], [ %6, %.preheader.i ]
  %.018.i = phi i32 [ %.220.ph.i, %22 ], [ 0, %.preheader.i ]
  %9 = add i32 %.018.i, %.022.i
  %10 = lshr i32 %9, 1
  %11 = load ptr, ptr %7, align 8, !tbaa !74
  %12 = zext nneg i32 %10 to i64
  %13 = getelementptr inbounds nuw %struct._timelib_tzdb_index_entry, ptr %11, i64 %12
  %14 = load ptr, ptr %13, align 8, !tbaa !75
  %15 = tail call i32 @timelib_strcasecmp(ptr noundef %0, ptr noundef %14) #17
  %16 = icmp slt i32 %15, 0
  br i1 %16, label %17, label %19

17:                                               ; preds = %8
  %18 = add nsw i32 %10, -1
  br label %22

19:                                               ; preds = %8
  %.not.i = icmp eq i32 %15, 0
  br i1 %.not.i, label %seek_to_tz_position.exit, label %20

20:                                               ; preds = %19
  %21 = add nuw i32 %10, 1
  br label %22

22:                                               ; preds = %20, %17
  %.224.ph.i = phi i32 [ %.022.i, %20 ], [ %18, %17 ]
  %.220.ph.i = phi i32 [ %21, %20 ], [ %.018.i, %17 ]
  %.not26.i = icmp sgt i32 %.220.ph.i, %.224.ph.i
  br i1 %.not26.i, label %seek_to_tz_position.exit, label %8

seek_to_tz_position.exit:                         ; preds = %19, %22, %2
  %.0.i = phi i32 [ 0, %2 ], [ 1, %19 ], [ 0, %22 ]
  ret i32 %.0.i
}